target datalayout = "e-m:e-p270:32:32-p271:32:32-p272:64:64-i64:64-i128:128-f80:128-n8:16:32:64-S128"
target triple = "x86_64-pc-linux-gnu"

%struct.DWTContext = type { ptr, ptr, i32, i32, i32, i32, i32, ptr, %union.anon, %union.anon, ptr, ptr, ptr, ptr, [8 x %struct.DWTCompose] }
%union.anon = type { ptr }
%struct.DWTCompose = type { [8 x ptr], i32 }

; Function Attrs: nounwind uwtable
define internal void @spatial_compose_haari_dy_12bit(ptr noundef %0, i32 noundef %1, i32 noundef %2, i32 noundef %3, i32 noundef %4) #0 {
  %6 = alloca ptr, align 8
  %7 = alloca i32, align 4
  %8 = alloca i32, align 4
  %9 = alloca i32, align 4
  %10 = alloca i32, align 4
  %11 = alloca ptr, align 8
  %12 = alloca i32, align 4
  %13 = alloca ptr, align 8
  %14 = alloca ptr, align 8
  store ptr %0, ptr %6, align 8, !tbaa !4
  store i32 %1, ptr %7, align 4, !tbaa !11
  store i32 %2, ptr %8, align 4, !tbaa !11
  store i32 %3, ptr %9, align 4, !tbaa !11
  store i32 %4, ptr %10, align 4, !tbaa !11
  call void @llvm.lifetime.start.p0(i64 8, ptr %11) #5
  %15 = load ptr, ptr %6, align 8, !tbaa !4
  %16 = getelementptr inbounds nuw %struct.DWTContext, ptr %15, i32 0, i32 12
  %17 = load ptr, ptr %16, align 8, !tbaa !35
  store ptr %17, ptr %11, align 8, !tbaa !45
  call void @llvm.lifetime.start.p0(i64 4, ptr %12) #5
  %18 = load ptr, ptr %6, align 8, !tbaa !4
  %19 = getelementptr inbounds nuw %struct.DWTContext, ptr %18, i32 0, i32 14
  %20 = load i32, ptr %7, align 4, !tbaa !11
  %21 = sext i32 %20 to i64
  %22 = getelementptr inbounds [8 x %struct.DWTCompose], ptr %19, i64 0, i64 %21
  %23 = getelementptr inbounds nuw %struct.DWTCompose, ptr %22, i32 0, i32 1
  %24 = load i32, ptr %23, align 8, !tbaa !27
  store i32 %24, ptr %12, align 4, !tbaa !11
  call void @llvm.lifetime.start.p0(i64 8, ptr %13) #5
  %25 = load ptr, ptr %6, align 8, !tbaa !4
  %26 = getelementptr inbounds nuw %struct.DWTContext, ptr %25, i32 0, i32 0
  %27 = load ptr, ptr %26, align 8, !tbaa !16
  %28 = load i32, ptr %12, align 4, !tbaa !11
  %29 = sub nsw i32 %28, 1
  %30 = load i32, ptr %10, align 4, !tbaa !11
  %31 = mul nsw i32 %29, %30
  %32 = sext i32 %31 to i64
  %33 = getelementptr inbounds i8, ptr %27, i64 %32
  store ptr %33, ptr %13, align 8, !tbaa !44
  call void @llvm.lifetime.start.p0(i64 8, ptr %14) #5
  %34 = load ptr, ptr %6, align 8, !tbaa !4
  %35 = getelementptr inbounds nuw %struct.DWTContext, ptr %34, i32 0, i32 0
  %36 = load ptr, ptr %35, align 8, !tbaa !16
  %37 = load i32, ptr %12, align 4, !tbaa !11
  %38 = load i32, ptr %10, align 4, !tbaa !11
  %39 = mul nsw i32 %37, %38
  %40 = sext i32 %39 to i64
  %41 = getelementptr inbounds i8, ptr %36, i64 %40
  store ptr %41, ptr %14, align 8, !tbaa !44
  %42 = load ptr, ptr %11, align 8, !tbaa !45
  %43 = load ptr, ptr %13, align 8, !tbaa !44
  %44 = load ptr, ptr %14, align 8, !tbaa !44
  %45 = load i32, ptr %8, align 4, !tbaa !11
  call void %42(ptr noundef %43, ptr noundef %44, i32 noundef %45)
  %46 = load ptr, ptr %6, align 8, !tbaa !4
  %47 = getelementptr inbounds nuw %struct.DWTContext, ptr %46, i32 0, i32 13
  %48 = load ptr, ptr %47, align 8, !tbaa !33
  %49 = load ptr, ptr %13, align 8, !tbaa !44
  %50 = load ptr, ptr %6, align 8, !tbaa !4
  %51 = getelementptr inbounds nuw %struct.DWTContext, ptr %50, i32 0, i32 1
  %52 = load ptr, ptr %51, align 8, !tbaa !25
  %53 = load i32, ptr %8, align 4, !tbaa !11
  call void %48(ptr noundef %49, ptr noundef %52, i32 noundef %53)
  %54 = load ptr, ptr %6, align 8, !tbaa !4
  %55 = getelementptr inbounds nuw %struct.DWTContext, ptr %54, i32 0, i32 13
  %56 = load ptr, ptr %55, align 8, !tbaa !33
  %57 = load ptr, ptr %14, align 8, !tbaa !44
  %58 = load ptr, ptr %6, align 8, !tbaa !4
  %59 = getelementptr inbounds nuw %struct.DWTContext, ptr %58, i32 0, i32 1
  %60 = load ptr, ptr %59, align 8, !tbaa !25
  %61 = load i32, ptr %8, align 4, !tbaa !11
  call void %56(ptr noundef %57, ptr noundef %60, i32 noundef %61)
  %62 = load ptr, ptr %6, align 8, !tbaa !4
  %63 = getelementptr inbounds nuw %struct.DWTContext, ptr %62, i32 0, i32 14
  %64 = load i32, ptr %7, align 4, !tbaa !11
  %65 = sext i32 %64 to i64
  %66 = getelementptr inbounds [8 x %struct.DWTCompose], ptr %63, i64 0, i64 %65
  %67 = getelementptr inbounds nuw %struct.DWTCompose, ptr %66, i32 0, i32 1
  %68 = load i32, ptr %67, align 8, !tbaa !27
  %69 = add nsw i32 %68, 2
  store i32 %69, ptr %67, align 8, !tbaa !27
  call void @llvm.lifetime.end.p0(i64 8, ptr %14) #5
  call void @llvm.lifetime.end.p0(i64 8, ptr %13) #5
  call void @llvm.lifetime.end.p0(i64 4, ptr %12) #5
  call void @llvm.lifetime.end.p0(i64 8, ptr %11) #5
  ret void
}